; ModuleID = 'source-C-CXX/22/877.c'
source_filename = "source-C-CXX/22/877.c"
target datalayout = "e-m:e-p270:32:32-p271:32:32-p272:64:64-i64:64-f80:128-n8:16:32:64-S128"
target triple = "x86_64-pc-linux-gnu"

%struct._IO_FILE = type { i32, i8*, i8*, i8*, i8*, i8*, i8*, i8*, i8*, i8*, i8*, i8*, %struct._IO_marker*, %struct._IO_FILE*, i32, i32, i64, i16, i8, [1 x i8], i8*, i64, %struct._IO_codecvt*, %struct._IO_wide_data*, %struct._IO_FILE*, i8*, i64, i32, [20 x i8] }
%struct._IO_marker = type opaque
%struct._IO_codecvt = type opaque
%struct._IO_wide_data = type opaque

@.str = private unnamed_addr constant [3 x i8] c"%s\00", align 1
@.str.1 = private unnamed_addr constant [4 x i8] c"%s \00", align 1
@stdin = external local_unnamed_addr global %struct._IO_FILE*, align 8

; Function Attrs: nofree nounwind sspstrong uwtable
define dso_local void @main() local_unnamed_addr #0 {
  %1 = alloca [30 x i8*], align 16
  %2 = bitcast [30 x i8*]* %1 to i8*
  call void @llvm.lifetime.start.p0i8(i64 240, i8* nonnull %2) #4
  br label %3

3:                                                ; preds = %3, %0
  %4 = phi i64 [ %11, %3 ], [ 0, %0 ]
  %5 = tail call noalias align 16 dereferenceable_or_null(20) i8* @calloc(i64 1, i64 20) #4
  %6 = getelementptr inbounds [30 x i8*], [30 x i8*]* %1, i64 0, i64 %4
  store i8* %5, i8** %6, align 8, !tbaa !5
  %7 = tail call i32 (i8*, ...) @__isoc99_scanf(i8* getelementptr inbounds ([3 x i8], [3 x i8]* @.str, i64 0, i64 0), i8* %5)
  %8 = load %struct._IO_FILE*, %struct._IO_FILE** @stdin, align 8, !tbaa !5
  %9 = tail call i32 @getc(%struct._IO_FILE* %8) #4
  %10 = icmp eq i32 %9, 10
  %11 = add nuw i64 %4, 1
  br i1 %10, label %12, label %3

12:                                               ; preds = %3
  %13 = getelementptr inbounds [30 x i8*], [30 x i8*]* %1, i64 0, i64 0
  %14 = load i8*, i8** %13, align 16
  %15 = and i64 %4, 4294967295
  br label %16

16:                                               ; preds = %12, %21
  %17 = phi i64 [ %15, %12 ], [ %27, %21 ]
  %18 = icmp eq i64 %17, 0
  br i1 %18, label %19, label %21

19:                                               ; preds = %16
  %20 = tail call i32 (i8*, ...) @printf(i8* nonnull dereferenceable(1) getelementptr inbounds ([3 x i8], [3 x i8]* @.str, i64 0, i64 0), i8* %14)
  br label %28

21:                                               ; preds = %16
  %22 = getelementptr inbounds [30 x i8*], [30 x i8*]* %1, i64 0, i64 %17
  %23 = load i8*, i8** %22, align 8, !tbaa !5
  %24 = tail call i32 (i8*, ...) @printf(i8* nonnull dereferenceable(1) getelementptr inbounds ([4 x i8], [4 x i8]* @.str.1, i64 0, i64 0), i8* %23)
  %25 = trunc i64 %17 to i32
  %26 = icmp sgt i32 %25, 0
  %27 = add nsw i64 %17, -1
  br i1 %26, label %16, label %28, !llvm.loop !9

28:                                               ; preds = %21, %19
  call void @llvm.lifetime.end.p0i8(i64 240, i8* nonnull %2) #4
  ret void
}

; Function Attrs: argmemonly mustprogress nofree nosync nounwind willreturn
declare void @llvm.lifetime.start.p0i8(i64 immarg, i8* nocapture) #1

; Function Attrs: mustprogress nofree nounwind willreturn
declare noalias noundef align 16 i8* @calloc(i64 noundef, i64 noundef) local_unnamed_addr #2

; Function Attrs: nofree nounwind
declare noundef i32 @__isoc99_scanf(i8* nocapture noundef readonly, ...) local_unnamed_addr #3

; Function Attrs: nofree nounwind
declare noundef i32 @printf(i8* nocapture noundef readonly, ...) local_unnamed_addr #3

; Function Attrs: argmemonly mustprogress nofree nosync nounwind willreturn
declare void @llvm.lifetime.end.p0i8(i64 immarg, i8* nocapture) #1

; Function Attrs: nofree nounwind
declare noundef i32 @getc(%struct._IO_FILE* nocapture noundef) local_unnamed_addr #3


!llvm.module.flags = !{!0, !1, !2, !3}
!llvm.ident = !{!4}

!0 = !{i32 1, !"wchar_size", i32 4}
!1 = !{i32 7, !"PIC Level", i32 2}
!2 = !{i32 7, !"PIE Level", i32 2}
!3 = !{i32 7, !"uwtable", i32 1}
!4 = !{!"clang version 13.0.0"}
!5 = !{!6, !6, i64 0}
!6 = !{!"any pointer", !7, i64 0}
!7 = !{!"omnipotent char", !8, i64 0}
!8 = !{!"Simple C/C++ TBAA"}
!9 = distinct !{!9, !10}
!10 = !{!"llvm.loop.mustprogress"}
